target datalayout = "e-m:e-p270:32:32-p271:32:32-p272:64:64-i64:64-i128:128-f80:128-n8:16:32:64-S128"
target triple = "x86_64-pc-linux-gnu"

%struct.vfd = type { i32, i16, ptr, i32, i32, i32, i64, ptr, i32, i32 }

@VfdCache = internal global ptr null, align 8
@my_wait_event_info = external global ptr, align 8

; Function Attrs: inlinehint nounwind uwtable
define internal void @pgstat_report_wait_end() #9 {
  %1 = load ptr, ptr @my_wait_event_info, align 8
  store volatile i32 0, ptr %1, align 4
  ret void
}

; Function Attrs: inlinehint nounwind uwtable
define internal void @pgstat_report_wait_start(i32 noundef %0) #9 {
  %2 = alloca i32, align 4
  store i32 %0, ptr %2, align 4
  %3 = load i32, ptr %2, align 4
  %4 = load ptr, ptr @my_wait_event_info, align 8
  store volatile i32 %3, ptr %4, align 4
  ret void
}

; Function Attrs: nounwind uwtable
define dso_local i32 @FilePrefetch(i32 noundef %0, i64 noundef %1, i64 noundef %2, i32 noundef %3) #0 {
  %5 = alloca i32, align 4
  %6 = alloca i32, align 4
  %7 = alloca i64, align 8
  %8 = alloca i64, align 8
  %9 = alloca i32, align 4
  %10 = alloca i32, align 4
  %11 = alloca i32, align 4
  store i32 %0, ptr %6, align 4
  store i64 %1, ptr %7, align 8
  store i64 %2, ptr %8, align 8
  store i32 %3, ptr %9, align 4
  call void @llvm.lifetime.start.p0(i64 4, ptr %10) #14
  %12 = load i32, ptr %6, align 4
  %13 = call i32 @FileAccess(i32 noundef %12)
  store i32 %13, ptr %10, align 4
  %14 = load i32, ptr %10, align 4
  %15 = icmp slt i32 %14, 0
  br i1 %15, label %16, label %18

16:                                               ; preds = %4
  %17 = load i32, ptr %10, align 4
  store i32 %17, ptr %5, align 4
  store i32 1, ptr %11, align 4
  br label %35

18:                                               ; preds = %4
  br label %19

19:                                               ; preds = %32, %18
  %20 = load i32, ptr %9, align 4
  call void @pgstat_report_wait_start(i32 noundef %20)
  %21 = load ptr, ptr @VfdCache, align 8
  %22 = load i32, ptr %6, align 4
  %23 = sext i32 %22 to i64
  %24 = getelementptr inbounds %struct.vfd, ptr %21, i64 %23
  %25 = getelementptr inbounds nuw %struct.vfd, ptr %24, i32 0, i32 0
  %26 = load i32, ptr %25, align 8
  %27 = load i64, ptr %7, align 8
  %28 = load i64, ptr %8, align 8
  %29 = call i32 @posix_fadvise(i32 noundef %26, i64 noundef %27, i64 noundef %28, i32 noundef 3) #14
  store i32 %29, ptr %10, align 4
  call void @pgstat_report_wait_end()
  %30 = load i32, ptr %10, align 4
  %31 = icmp eq i32 %30, 4
  br i1 %31, label %32, label %33

32:                                               ; preds = %19
  br label %19

33:                                               ; preds = %19
  %34 = load i32, ptr %10, align 4
  store i32 %34, ptr %5, align 4
  store i32 1, ptr %11, align 4
  br label %35

35:                                               ; preds = %33, %16
  call void @llvm.lifetime.end.p0(i64 4, ptr %10) #14
  %36 = load i32, ptr %5, align 4
  ret i32 %36
}