; Function Attrs: nounwind uwtable
define dso_local range(i32 5, 4) i32 @FilePrefetch(i32 noundef %0, i64 noundef %1, i64 noundef %2, i32 noundef %3) local_unnamed_addr #0 {
  %5 = tail call fastcc i32 @FileAccess(i32 noundef %0)
  %6 = icmp slt i32 %5, 0
  br i1 %6, label %.loopexit, label %.preheader

.preheader:                                       ; preds = %4
  %7 = sext i32 %0 to i64
  br label %8

8:                                                ; preds = %.preheader, %8
  %9 = load ptr, ptr @my_wait_event_info, align 8
  store volatile i32 %3, ptr %9, align 4
  %10 = load ptr, ptr @VfdCache, align 8
  %11 = getelementptr inbounds %struct.vfd, ptr %10, i64 %7
  %12 = load i32, ptr %11, align 8
  %13 = tail call i32 @posix_fadvise(i32 noundef %12, i64 noundef %1, i64 noundef %2, i32 noundef 3) #25
  %14 = load ptr, ptr @my_wait_event_info, align 8
  store volatile i32 0, ptr %14, align 4
  %15 = icmp eq i32 %13, 4
  br i1 %15, label %8, label %.loopexit

.loopexit:                                        ; preds = %8, %4
  %.0 = phi i32 [ -1, %4 ], [ %13, %8 ]
  ret i32 %.0
}